Certificate:
    Data:
        Version: 3 (0x2)
        Serial Number:
            d7:46:3e:07:91:90:23:41
        Signature Algorithm: sha1WithRSAEncryption
        Issuer: C=CA, ST=Manitoba, O=Test CA, CN=Test CA guy/emailAddress=testguy@example.com
        Validity
            Not Before: May 18 00:27:47 2012 GMT
            Not After : May 18 00:27:47 2015 GMT
        Subject: C=CA, ST=Manitoba, O=Test CA, CN=Test CA guy/emailAddress=testguy@example.com
        Subject Public Key Info:
            Public Key Algorithm: rsaEncryption
            RSA Public Key: (1024 bit)
                Modulus (1024 bit):
                    00:cb:5d:af:4d:53:be:27:f1:e5:de:7a:4a:73:f8:
                    40:d1:ad:ab:d9:49:1f:bf:cf:e4:20:09:49:47:f2:
                    82:0e:0b:81:30:55:ad:b9:17:8d:32:84:e2:20:af:
                    e3:9a:23:59:61:64:f5:8b:07:28:cf:1f:07:36:05:
                    d9:51:f7:60:dd:e2:f7:d3:13:88:fc:f9:75:7f:15:
                    bd:6c:87:e3:b8:05:9a:19:80:16:58:59:dd:b2:37:
                    a9:61:62:f4:32:43:d5:6b:35:8f:9f:c3:5a:66:a7:
                    df:75:58:36:1c:b4:45:82:d7:4b:35:de:26:a3:b6:
                    fb:1e:66:e6:57:2d:be:65:ed
                Exponent: 65537 (0x10001)
        X509v3 extensions:
            X509v3 Subject Key Identifier: 
                50:30:0A:F4:E4:C1:A4:6E:C1:6F:75:30:02:D1:1F:1D:60:62:F4:66
            X509v3 Authority Key Identifier: 
                keyid:50:30:0A:F4:E4:C1:A4:6E:C1:6F:75:30:02:D1:1F:1D:60:62:F4:66
                DirName:/C=CA/ST=Manitoba/O=Test CA/CN=Test CA guy/emailAddress=testguy@example.com
                serial:D7:46:3E:07:91:90:23:41

            X509v3 Basic Constraints: 
                CA:TRUE
    Signature Algorithm: sha1WithRSAEncryption
        0a:9a:a2:65:30:3e:2e:0c:44:a2:1e:1f:12:bf:66:bb:06:e2:
        9c:be:35:f9:1c:ad:de:0f:23:da:ff:36:ba:ff:c1:5d:09:67:
        93:2e:c1:08:ee:4a:0f:42:3c:c9:e2:c2:0a:d9:2a:cc:58:7a:
        ae:84:74:3f:9e:43:fe:d8:e3:6b:6b:7c:e2:a3:bb:8b:03:65:
        02:82:be:a9:6e:4b:bf:06:eb:95:7b:b0:13:00:ba:9a:27:0f:
        53:b7:73:10:19:82:15:51:64:89:84:92:41:0f:40:12:a6:31:
        3a:f2:91:4e:68:e4:da:e2:dc:5c:03:e6:ef:4c:07:d4:5c:22:
        73:de
-----BEGIN CERTIFICATE-----
MIIDKDCCApGgAwIBAgIJANdGPgeRkCNBMA0GCSqGSIb3DQEBBQUAMGwxCzAJBgNV
BAYTAkNBMREwDwYDVQQIEwhNYW5pdG9iYTEQMA4GA1UEChMHVGVzdCBDQTEUMBIG
A1UEAxMLVGVzdCBDQSBndXkxIjAgBgkqhkiG9w0BCQEWE3Rlc3RndXlAZXhhbXBs
ZS5jb20wHhcNMTIwNTE4MDAyNzQ3WhcNMTUwNTE4MDAyNzQ3WjBsMQswCQYDVQQG
EwJDQTERMA8GA1UECBMITWFuaXRvYmExEDAOBgNVBAoTB1Rlc3QgQ0ExFDASBgNV
BAMTC1Rlc3QgQ0EgZ3V5MSIwIAYJKoZIhvcNAQkBFhN0ZXN0Z3V5QGV4YW1wbGUu
Y29tMIGfMA0GCSqGSIb3DQEBAQUAA4GNADCBiQKBgQDLXa9NU74n8eXeekpz+EDR
ravZSR+/z+QgCUlH8oIOC4EwVa25F40yhOIgr+OaI1lhZPWLByjPHwc2BdlR92Dd
4vfTE4j8+XV/Fb1sh+O4BZoZgBZYWd2yN6lhYvQyQ9VrNY+fw1pmp991WDYctEWC
10s13iajtvseZuZXLb5l7QIDAQABo4HRMIHOMB0GA1UdDgQWBBRQMAr05MGkbsFv
dTAC0R8dYGL0ZjCBngYDVR0jBIGWMIGTgBRQMAr05MGkbsFvdTAC0R8dYGL0ZqFw
pG4wbDELMAkGA1UEBhMCQ0ExETAPBgNVBAgTCE1hbml0b2JhMRAwDgYDVQQKEwdU
ZXN0IENBMRQwEgYDVQQDEwtUZXN0IENBIGd1eTEiMCAGCSqGSIb3DQEJARYTdGVz
dGd1eUBleGFtcGxlLmNvbYIJANdGPgeRkCNBMAwGA1UdEwQFMAMBAf8wDQYJKoZI
hvcNAQEFBQADgYEACpqiZTA+LgxEoh4fEr9muwbinL41+Ryt3g8j2v82uv/BXQln
ky7BCO5KD0I8yeLCCtkqzFh6roR0P55D/tjja2t84qO7iwNlAoK+qW5LvwbrlXuw
EwC6micPU7dzEBmCFVFkiYSSQQ9AEqYxOvKRTmjk2uLcXAPm70wH1Fwic94=
-----END CERTIFICATE-----
